
Memory Configuration

Name             Origin             Length             Attributes
exec_file        0x0000000000000000 0x0000000000100000 r
ram              0x0000000000110000 0x00000000000f0000 xw
*default*        0x0000000000000000 0xffffffffffffffff

Linker script and memory map


.note.gnu.property
                0x0000000000000000      0x160
 .note.gnu.property
                0x0000000000000000       0x20 turos.o
 .note.gnu.property
                0x0000000000000020       0x20 acpi.o
 .note.gnu.property
                0x0000000000000040       0x20 common.o
 .note.gnu.property
                0x0000000000000060       0x20 font.o
 .note.gnu.property
                0x0000000000000080       0x20 hpet.o
 .note.gnu.property
                0x00000000000000a0       0x20 intr.o
 .note.gnu.property
                0x00000000000000c0       0x20 kbc.o
 .note.gnu.property
                0x00000000000000e0       0x20 pic.o
 .note.gnu.property
                0x0000000000000100       0x20 pixel.o
 .note.gnu.property
                0x0000000000000120       0x20 print.o
 .note.gnu.property
                0x0000000000000140       0x20 x86.o

.header         0x0000000000000160       0x10
                0x0000000000000160        0x8 QUAD 0x1130a8 __bss_start
                0x0000000000000168        0x8 QUAD 0x1068 (__bss_end - __bss_start)

.body           0x0000000000110000     0x45c0 load address 0x0000000000000170
 *(.text)
 .text          0x0000000000110000      0x281 turos.o
                0x0000000000110000                start_kernel
 .text          0x0000000000110281      0x162 acpi.o
                0x0000000000110281                init_acpi
                0x00000000001102ba                dump_sdth_signature
                0x00000000001102fc                dump_xsdt_entries
                0x000000000011036b                get_sdth
 .text          0x00000000001103e3       0xb4 common.o
                0x00000000001103e3                check_nullptr
                0x000000000011041b                strncmp
 .text          0x0000000000110497        0x0 font.o
 .text          0x0000000000110497      0x41d hpet.o
                0x0000000000110497                init_hpet
                0x00000000001105a6                dump_gcidr
                0x00000000001106e1                dump_gcr
                0x000000000011076e                dump_mcr
                0x00000000001107ae                sleep
 .text          0x00000000001108b4      0x146 intr.o
                0x00000000001108b4                set_intr
                0x000000000011098c                intr_init
 .text          0x00000000001109fa       0xc2 kbc.o
                0x00000000001109fa                do_kbc_interrupt
                0x0000000000110a86                kbc_intr_init
 .text          0x0000000000110abc      0x135 pic.o
                0x0000000000110abc                pic_init
                0x0000000000110b5d                enable_pic_intr
                0x0000000000110bbd                set_pic_eoi
 .text          0x0000000000110bf1      0x157 pixel.o
                0x0000000000110bf1                fb_init
                0x0000000000110c46                draw_px
                0x0000000000110cb4                set_screen
                0x0000000000110d29                set_default_screen
 .text          0x0000000000110d48      0x24d print.o
                0x0000000000110d48                putc
                0x0000000000110ebe                puts
                0x0000000000110ef5                putd
 .text          0x0000000000110f95       0xa5 x86.o
                0x0000000000110f95                io_read
                0x0000000000110fb3                io_write
                0x0000000000110fd4                gdt_init
                0x000000000011102e                enable_cpu_intr
 .text          0x000000000011103a       0x17 handler.o
                0x000000000011103a                default_handler
                0x000000000011103c                kbc_handler
 *(.rodata)
 .rodata        0x0000000000111051       0xe1 turos.o
 .rodata        0x0000000000111132        0x2 acpi.o
 .rodata        0x0000000000111134        0x8 common.o
 *fill*         0x000000000011113c        0x4 
 .rodata        0x0000000000111140     0x1e00 font.o
                0x0000000000111140                font_bitmap
 .rodata        0x0000000000112f40       0xa9 hpet.o
 *fill*         0x0000000000112fe9       0x17 
 .rodata        0x0000000000113000       0x80 kbc.o
                0x0000000000113000                keymap
 .rodata        0x0000000000113080        0x8 print.o
 *fill*         0x0000000000113088        0x8 
 .rodata        0x0000000000113090       0x18 x86.o
                0x0000000000113090                gdt
 *(.data)
 .data          0x00000000001130a8        0x0 turos.o
 .data          0x00000000001130a8        0x0 acpi.o
 .data          0x00000000001130a8        0x0 common.o
 .data          0x00000000001130a8        0x0 font.o
 .data          0x00000000001130a8        0x0 hpet.o
 .data          0x00000000001130a8        0x0 intr.o
 .data          0x00000000001130a8        0x0 kbc.o
 .data          0x00000000001130a8        0x0 pic.o
 .data          0x00000000001130a8        0x0 pixel.o
 .data          0x00000000001130a8        0x0 print.o
 .data          0x00000000001130a8        0x0 x86.o
 .data          0x00000000001130a8        0x0 handler.o
                0x00000000001130a8                __bss_start = .
 *(.bss)
 .bss           0x00000000001130a8        0x0 turos.o
 .bss           0x00000000001130a8       0x10 acpi.o
                0x00000000001130a8                xsdt
                0x00000000001130b0                num_entries
 .bss           0x00000000001130b8        0x0 common.o
 .bss           0x00000000001130b8        0x0 font.o
 .bss           0x00000000001130b8        0xc hpet.o
                0x00000000001130b8                hpet_reg
                0x00000000001130c0                counter_clk_period
 *fill*         0x00000000001130c4       0x1c 
 .bss           0x00000000001130e0     0x1010 intr.o
                0x00000000001130e0                idt
                0x00000000001140e0                idtr
 .bss           0x00000000001140f0        0x0 kbc.o
 .bss           0x00000000001140f0        0x0 pic.o
 .bss           0x00000000001140f0        0x8 pixel.o
                0x00000000001140f0                fb
 .bss           0x00000000001140f8        0x8 print.o
                0x00000000001140f8                cursor_x
                0x00000000001140fc                cursor_y
 .bss           0x0000000000114100       0x10 x86.o
                0x0000000000114100                gdtr
 .bss           0x0000000000114110        0x0 handler.o
                0x0000000000114110                __bss_end = .
 *(.eh_frame)
 .eh_frame      0x0000000000114110       0x38 turos.o
 .eh_frame      0x0000000000114148       0x98 acpi.o
 .eh_frame      0x00000000001141e0       0x58 common.o
 .eh_frame      0x0000000000114238       0xb8 hpet.o
 .eh_frame      0x00000000001142f0       0x58 intr.o
 .eh_frame      0x0000000000114348       0x58 kbc.o
 .eh_frame      0x00000000001143a0       0x78 pic.o
 .eh_frame      0x0000000000114418       0x98 pixel.o
 .eh_frame      0x00000000001144b0       0x78 print.o
 .eh_frame      0x0000000000114528       0x98 x86.o
LOAD turos.o
LOAD acpi.o
LOAD common.o
LOAD font.o
LOAD hpet.o
LOAD intr.o
LOAD kbc.o
LOAD pic.o
LOAD pixel.o
LOAD print.o
LOAD x86.o
LOAD handler.o
OUTPUT(kernel.bin binary)

.comment        0x0000000000000000      0x1d9
 .comment       0x0000000000000000       0x2b turos.o
 .comment       0x000000000000002b       0x2b acpi.o
 .comment       0x0000000000000056       0x2b common.o
 .comment       0x0000000000000081       0x2b font.o
 .comment       0x00000000000000ac       0x2b hpet.o
 .comment       0x00000000000000d7       0x2b intr.o
 .comment       0x0000000000000102       0x2b kbc.o
 .comment       0x000000000000012d       0x2b pic.o
 .comment       0x0000000000000158       0x2b pixel.o
 .comment       0x0000000000000183       0x2b print.o
 .comment       0x00000000000001ae       0x2b x86.o

.note.GNU-stack
                0x0000000000000000        0x0
 .note.GNU-stack
                0x0000000000000000        0x0 turos.o
 .note.GNU-stack
                0x0000000000000000        0x0 acpi.o
 .note.GNU-stack
                0x0000000000000000        0x0 common.o
 .note.GNU-stack
                0x0000000000000000        0x0 font.o
 .note.GNU-stack
                0x0000000000000000        0x0 hpet.o
 .note.GNU-stack
                0x0000000000000000        0x0 intr.o
 .note.GNU-stack
                0x0000000000000000        0x0 kbc.o
 .note.GNU-stack
                0x0000000000000000        0x0 pic.o
 .note.GNU-stack
                0x0000000000000000        0x0 pixel.o
 .note.GNU-stack
                0x0000000000000000        0x0 print.o
 .note.GNU-stack
                0x0000000000000000        0x0 x86.o
